target datalayout = "e-m:e-p270:32:32-p271:32:32-p272:64:64-i64:64-i128:128-f80:128-n8:16:32:64-S128"
target triple = "x86_64-pc-linux-gnu"

%struct._asn1_ctx_t = type { i32, i32, i8, ptr, ptr, ptr, ptr, ptr, %struct.anon, %struct.anon.2, %struct.anon.3, ptr }
%struct.anon = type { i32, i8, i8, i8, ptr, ptr, i32, i32, ptr, ptr, ptr, %union.anon }
%union.anon = type { %struct.anon.0 }
%struct.anon.0 = type { ptr }
%struct.anon.2 = type { ptr, ptr, ptr }
%struct.anon.3 = type { i32, i8, ptr, i32, i32, ptr, ptr, ptr, %union.anon.4 }
%union.anon.4 = type { %struct.anon.5 }
%struct.anon.5 = type { ptr }

@hf_xnap_transportLayerAddressIPv4 = internal global i32 0, align 4
@hf_xnap_transportLayerAddressIPv6 = internal global i32 0, align 4
@ett_xnap_TransportLayerAddress = internal global i32 0, align 4

; Function Attrs: null_pointer_is_valid sspstrong uwtable
define internal i32 @dissect_xnap_TransportLayerAddress(ptr noundef %0, i32 noundef %1, ptr noundef %2, ptr noundef %3, i32 noundef %4) #0 {
  %6 = alloca i32, align 4
  %7 = alloca ptr, align 8
  %8 = alloca i32, align 4
  %9 = alloca ptr, align 8
  %10 = alloca ptr, align 8
  %11 = alloca i32, align 4
  %12 = alloca ptr, align 8
  %13 = alloca ptr, align 8
  %14 = alloca i32, align 4
  %15 = alloca i32, align 4
  store ptr %0, ptr %7, align 8
  store i32 %1, ptr %8, align 4
  store ptr %2, ptr %9, align 8
  store ptr %3, ptr %10, align 8
  store i32 %4, ptr %11, align 4
  call void @llvm.lifetime.start.p0(i64 8, ptr %12) #9
  store ptr null, ptr %12, align 8
  call void @llvm.lifetime.start.p0(i64 8, ptr %13) #9
  call void @llvm.lifetime.start.p0(i64 4, ptr %14) #9
  %16 = load ptr, ptr %7, align 8
  %17 = load i32, ptr %8, align 4
  %18 = load ptr, ptr %9, align 8
  %19 = load ptr, ptr %10, align 8
  %20 = load i32, ptr %11, align 4
  %21 = call i32 @dissect_per_bit_string(ptr noundef %16, i32 noundef %17, ptr noundef %18, ptr noundef %19, i32 noundef %20, i32 noundef 1, i32 noundef 160, i1 noundef zeroext true, ptr noundef null, i32 noundef 0, ptr noundef %12, ptr noundef %14)
  store i32 %21, ptr %8, align 4
  %22 = load ptr, ptr %12, align 8
  %23 = icmp ne ptr %22, null
  br i1 %23, label %26, label %24

24:                                               ; preds = %5
  %25 = load i32, ptr %8, align 4
  store i32 %25, ptr %6, align 4
  store i32 1, ptr %15, align 4
  br label %63

26:                                               ; preds = %5
  %27 = load ptr, ptr %9, align 8
  %28 = getelementptr inbounds nuw %struct._asn1_ctx_t, ptr %27, i32 0, i32 4
  %29 = load ptr, ptr %28, align 8
  %30 = load i32, ptr @ett_xnap_TransportLayerAddress, align 4
  %31 = call ptr @proto_item_add_subtree(ptr noundef %29, i32 noundef %30)
  store ptr %31, ptr %13, align 8
  %32 = load i32, ptr %14, align 4
  %33 = icmp eq i32 %32, 32
  br i1 %33, label %34, label %39

34:                                               ; preds = %26
  %35 = load ptr, ptr %13, align 8
  %36 = load i32, ptr @hf_xnap_transportLayerAddressIPv4, align 4
  %37 = load ptr, ptr %12, align 8
  %38 = call ptr @proto_tree_add_item(ptr noundef %35, i32 noundef %36, ptr noundef %37, i32 noundef 0, i32 noundef 4, i32 noundef 0)
  br label %61

39:                                               ; preds = %26
  %40 = load i32, ptr %14, align 4
  %41 = icmp eq i32 %40, 128
  br i1 %41, label %42, label %47

42:                                               ; preds = %39
  %43 = load ptr, ptr %13, align 8
  %44 = load i32, ptr @hf_xnap_transportLayerAddressIPv6, align 4
  %45 = load ptr, ptr %12, align 8
  %46 = call ptr @proto_tree_add_item(ptr noundef %43, i32 noundef %44, ptr noundef %45, i32 noundef 0, i32 noundef 16, i32 noundef 0)
  br label %60

47:                                               ; preds = %39
  %48 = load i32, ptr %14, align 4
  %49 = icmp eq i32 %48, 160
  br i1 %49, label %50, label %59

50:                                               ; preds = %47
  %51 = load ptr, ptr %13, align 8
  %52 = load i32, ptr @hf_xnap_transportLayerAddressIPv4, align 4
  %53 = load ptr, ptr %12, align 8
  %54 = call ptr @proto_tree_add_item(ptr noundef %51, i32 noundef %52, ptr noundef %53, i32 noundef 0, i32 noundef 4, i32 noundef 0)
  %55 = load ptr, ptr %13, align 8
  %56 = load i32, ptr @hf_xnap_transportLayerAddressIPv6, align 4
  %57 = load ptr, ptr %12, align 8
  %58 = call ptr @proto_tree_add_item(ptr noundef %55, i32 noundef %56, ptr noundef %57, i32 noundef 4, i32 noundef 16, i32 noundef 0)
  br label %59

59:                                               ; preds = %50, %47
  br label %60

60:                                               ; preds = %59, %42
  br label %61

61:                                               ; preds = %60, %34
  %62 = load i32, ptr %8, align 4
  store i32 %62, ptr %6, align 4
  store i32 1, ptr %15, align 4
  br label %63

63:                                               ; preds = %61, %24
  call void @llvm.lifetime.end.p0(i64 4, ptr %14) #9
  call void @llvm.lifetime.end.p0(i64 8, ptr %13) #9
  call void @llvm.lifetime.end.p0(i64 8, ptr %12) #9
  %64 = load i32, ptr %6, align 4
  ret i32 %64
}