; Function Attrs: null_pointer_is_valid sspstrong uwtable
define internal i32 @dissect_xnap_TransportLayerAddress(ptr noundef %0, i32 noundef %1, ptr noundef %2, ptr noundef %3, i32 noundef %4) #0 {
  %6 = alloca ptr, align 8
  %7 = alloca i32, align 4
  call void @llvm.lifetime.start.p0(i64 8, ptr nonnull %6) #9
  store ptr null, ptr %6, align 8
  call void @llvm.lifetime.start.p0(i64 4, ptr nonnull %7) #9
  %8 = call i32 @dissect_per_bit_string(ptr noundef %0, i32 noundef %1, ptr noundef %2, ptr noundef %3, i32 noundef %4, i32 noundef 1, i32 noundef 160, i1 noundef zeroext true, ptr noundef null, i32 noundef 0, ptr noundef nonnull %6, ptr noundef nonnull %7)
  %9 = load ptr, ptr %6, align 8
  %.not = icmp eq ptr %9, null
  br i1 %.not, label %31, label %10

10:                                               ; preds = %5
  %11 = getelementptr inbounds nuw i8, ptr %2, i64 24
  %12 = load ptr, ptr %11, align 8
  %13 = load i32, ptr @ett_xnap_TransportLayerAddress, align 4
  %14 = call ptr @proto_item_add_subtree(ptr noundef %12, i32 noundef %13)
  %15 = load i32, ptr %7, align 4
  switch i32 %15, label %31 [
    i32 32, label %16
    i32 128, label %20
    i32 160, label %24
  ]

16:                                               ; preds = %10
  %17 = load i32, ptr @hf_xnap_transportLayerAddressIPv4, align 4
  %18 = load ptr, ptr %6, align 8
  %19 = call ptr @proto_tree_add_item(ptr noundef %14, i32 noundef %17, ptr noundef %18, i32 noundef 0, i32 noundef 4, i32 noundef 0)
  br label %31

20:                                               ; preds = %10
  %21 = load i32, ptr @hf_xnap_transportLayerAddressIPv6, align 4
  %22 = load ptr, ptr %6, align 8
  %23 = call ptr @proto_tree_add_item(ptr noundef %14, i32 noundef %21, ptr noundef %22, i32 noundef 0, i32 noundef 16, i32 noundef 0)
  br label %31

24:                                               ; preds = %10
  %25 = load i32, ptr @hf_xnap_transportLayerAddressIPv4, align 4
  %26 = load ptr, ptr %6, align 8
  %27 = call ptr @proto_tree_add_item(ptr noundef %14, i32 noundef %25, ptr noundef %26, i32 noundef 0, i32 noundef 4, i32 noundef 0)
  %28 = load i32, ptr @hf_xnap_transportLayerAddressIPv6, align 4
  %29 = load ptr, ptr %6, align 8
  %30 = call ptr @proto_tree_add_item(ptr noundef %14, i32 noundef %28, ptr noundef %29, i32 noundef 4, i32 noundef 16, i32 noundef 0)
  br label %31

31:                                               ; preds = %16, %24, %20, %10, %5
  call void @llvm.lifetime.end.p0(i64 4, ptr nonnull %7) #9
  call void @llvm.lifetime.end.p0(i64 8, ptr nonnull %6) #9
  ret i32 %8
}